target datalayout = "e-m:e-p270:32:32-p271:32:32-p272:64:64-i64:64-f80:128-n8:16:32:64-S128"
target triple = "x86_64-pc-linux-gnu"

%struct.student = type { %struct.student*, [10 x i8], [20 x i8], i8, i32, float, [20 x i8], %struct.student* }

@.str = private unnamed_addr constant [3 x i8] c"%s\00", align 1
@.str.1 = private unnamed_addr constant [3 x i8] c"%c\00", align 1
@.str.2 = private unnamed_addr constant [3 x i8] c"%d\00", align 1
@.str.3 = private unnamed_addr constant [3 x i8] c"%f\00", align 1
@.str.4 = private unnamed_addr constant [19 x i8] c"%s %s %c %d %g %s\0A\00", align 1

; Function Attrs: noinline nounwind uwtable
define dso_local %struct.student* @create() #0 {
  %1 = alloca %struct.student*, align 8
  %2 = alloca %struct.student*, align 8
  %3 = alloca %struct.student*, align 8
  %4 = alloca %struct.student*, align 8
  %5 = alloca %struct.student*, align 8
  %6 = alloca %struct.student*, align 8
  %7 = call noalias i8* @malloc(i64 80) #3
  %8 = bitcast i8* %7 to %struct.student*
  store %struct.student* %8, %struct.student** %3, align 8
  %9 = load %struct.student*, %struct.student** %3, align 8
  %10 = getelementptr inbounds %struct.student, %struct.student* %9, i32 0, i32 1
  %11 = getelementptr inbounds [10 x i8], [10 x i8]* %10, i64 0, i64 0
  %12 = call i32 (i8*, ...) @__isoc99_scanf(i8* getelementptr inbounds ([3 x i8], [3 x i8]* @.str, i64 0, i64 0), i8* %11)
  %13 = load %struct.student*, %struct.student** %3, align 8
  %14 = getelementptr inbounds %struct.student, %struct.student* %13, i32 0, i32 1
  %15 = getelementptr inbounds [10 x i8], [10 x i8]* %14, i64 0, i64 0
  %16 = load i8, i8* %15, align 8
  %17 = sext i8 %16 to i32
  %18 = icmp eq i32 %17, 101
  br i1 %18, label %19, label %23

19:                                               ; preds = %0
  %20 = load %struct.student*, %struct.student** %3, align 8
  %21 = bitcast %struct.student* %20 to i8*
  call void @free(i8* %21) #3
  store %struct.student* null, %struct.student** %2, align 8
  %22 = load %struct.student*, %struct.student** %2, align 8
  store %struct.student* %22, %struct.student** %1, align 8
  br label %109

23:                                               ; preds = %0
  %24 = load %struct.student*, %struct.student** %3, align 8
  %25 = getelementptr inbounds %struct.student, %struct.student* %24, i32 0, i32 2
  %26 = getelementptr inbounds [20 x i8], [20 x i8]* %25, i64 0, i64 0
  %27 = call i32 (i8*, ...) @__isoc99_scanf(i8* getelementptr inbounds ([3 x i8], [3 x i8]* @.str, i64 0, i64 0), i8* %26)
  %28 = call i32 @getchar()
  %29 = load %struct.student*, %struct.student** %3, align 8
  %30 = getelementptr inbounds %struct.student, %struct.student* %29, i32 0, i32 3
  %31 = call i32 (i8*, ...) @__isoc99_scanf(i8* getelementptr inbounds ([3 x i8], [3 x i8]* @.str.1, i64 0, i64 0), i8* %30)
  %32 = load %struct.student*, %struct.student** %3, align 8
  %33 = getelementptr inbounds %struct.student, %struct.student* %32, i32 0, i32 4
  %34 = call i32 (i8*, ...) @__isoc99_scanf(i8* getelementptr inbounds ([3 x i8], [3 x i8]* @.str.2, i64 0, i64 0), i32* %33)
  %35 = load %struct.student*, %struct.student** %3, align 8
  %36 = getelementptr inbounds %struct.student, %struct.student* %35, i32 0, i32 5
  %37 = call i32 (i8*, ...) @__isoc99_scanf(i8* getelementptr inbounds ([3 x i8], [3 x i8]* @.str.3, i64 0, i64 0), float* %36)
  %38 = load %struct.student*, %struct.student** %3, align 8
  %39 = getelementptr inbounds %struct.student, %struct.student* %38, i32 0, i32 6
  %40 = getelementptr inbounds [20 x i8], [20 x i8]* %39, i64 0, i64 0
  %41 = call i32 (i8*, ...) @__isoc99_scanf(i8* getelementptr inbounds ([3 x i8], [3 x i8]* @.str, i64 0, i64 0), i8* %40)
  %42 = load %struct.student*, %struct.student** %3, align 8
  %43 = getelementptr inbounds %struct.student, %struct.student* %42, i32 0, i32 7
  store %struct.student* null, %struct.student** %43, align 8
  br label %44

44:                                               ; preds = %23
  %45 = load %struct.student*, %struct.student** %3, align 8
  store %struct.student* %45, %struct.student** %2, align 8
  %46 = load %struct.student*, %struct.student** %3, align 8
  store %struct.student* %46, %struct.student** %4, align 8
  br label %47

47:                                               ; preds = %104, %44
  %48 = call noalias i8* @malloc(i64 80) #3
  %49 = bitcast i8* %48 to %struct.student*
  store %struct.student* %49, %struct.student** %3, align 8
  %50 = load %struct.student*, %struct.student** %3, align 8
  %51 = getelementptr inbounds %struct.student, %struct.student* %50, i32 0, i32 1
  %52 = getelementptr inbounds [10 x i8], [10 x i8]* %51, i64 0, i64 0
  %53 = call i32 (i8*, ...) @__isoc99_scanf(i8* getelementptr inbounds ([3 x i8], [3 x i8]* @.str, i64 0, i64 0), i8* %52)
  %54 = load %struct.student*, %struct.student** %3, align 8
  %55 = getelementptr inbounds %struct.student, %struct.student* %54, i32 0, i32 1
  %56 = getelementptr inbounds [10 x i8], [10 x i8]* %55, i64 0, i64 0
  %57 = load i8, i8* %56, align 8
  %58 = sext i8 %57 to i32
  %59 = icmp eq i32 %58, 101
  br i1 %59, label %60, label %83

60:                                               ; preds = %47
  %61 = load %struct.student*, %struct.student** %2, align 8
  %62 = getelementptr inbounds %struct.student, %struct.student* %61, i32 0, i32 0
  store %struct.student* null, %struct.student** %62, align 8
  %63 = load %struct.student*, %struct.student** %2, align 8
  store %struct.student* %63, %struct.student** %5, align 8
  br label %64

64:                                               ; preds = %69, %60
  %65 = load %struct.student*, %struct.student** %5, align 8
  %66 = getelementptr inbounds %struct.student, %struct.student* %65, i32 0, i32 7
  %67 = load %struct.student*, %struct.student** %66, align 8
  %68 = icmp ne %struct.student* %67, null
  br i1 %68, label %69, label %79

69:                                               ; preds = %64
  %70 = load %struct.student*, %struct.student** %5, align 8
  %71 = getelementptr inbounds %struct.student, %struct.student* %70, i32 0, i32 7
  %72 = load %struct.student*, %struct.student** %71, align 8
  store %struct.student* %72, %struct.student** %6, align 8
  %73 = load %struct.student*, %struct.student** %5, align 8
  %74 = load %struct.student*, %struct.student** %6, align 8
  %75 = getelementptr inbounds %struct.student, %struct.student* %74, i32 0, i32 0
  store %struct.student* %73, %struct.student** %75, align 8
  %76 = load %struct.student*, %struct.student** %5, align 8
  %77 = getelementptr inbounds %struct.student, %struct.student* %76, i32 0, i32 7
  %78 = load %struct.student*, %struct.student** %77, align 8
  store %struct.student* %78, %struct.student** %5, align 8
  br label %64

79:                                               ; preds = %64
  %80 = load %struct.student*, %struct.student** %3, align 8
  %81 = bitcast %struct.student* %80 to i8*
  call void @free(i8* %81) #3
  %82 = load %struct.student*, %struct.student** %2, align 8
  store %struct.student* %82, %struct.student** %1, align 8
  br label %109

83:                                               ; preds = %47
  %84 = load %struct.student*, %struct.student** %3, align 8
  %85 = getelementptr inbounds %struct.student, %struct.student* %84, i32 0, i32 2
  %86 = getelementptr inbounds [20 x i8], [20 x i8]* %85, i64 0, i64 0
  %87 = call i32 (i8*, ...) @__isoc99_scanf(i8* getelementptr inbounds ([3 x i8], [3 x i8]* @.str, i64 0, i64 0), i8* %86)
  %88 = call i32 @getchar()
  %89 = load %struct.student*, %struct.student** %3, align 8
  %90 = getelementptr inbounds %struct.student, %struct.student* %89, i32 0, i32 3
  %91 = call i32 (i8*, ...) @__isoc99_scanf(i8* getelementptr inbounds ([3 x i8], [3 x i8]* @.str.1, i64 0, i64 0), i8* %90)
  %92 = load %struct.student*, %struct.student** %3, align 8
  %93 = getelementptr inbounds %struct.student, %struct.student* %92, i32 0, i32 4
  %94 = call i32 (i8*, ...) @__isoc99_scanf(i8* getelementptr inbounds ([3 x i8], [3 x i8]* @.str.2, i64 0, i64 0), i32* %93)
  %95 = load %struct.student*, %struct.student** %3, align 8
  %96 = getelementptr inbounds %struct.student, %struct.student* %95, i32 0, i32 5
  %97 = call i32 (i8*, ...) @__isoc99_scanf(i8* getelementptr inbounds ([3 x i8], [3 x i8]* @.str.3, i64 0, i64 0), float* %96)
  %98 = load %struct.student*, %struct.student** %3, align 8
  %99 = getelementptr inbounds %struct.student, %struct.student* %98, i32 0, i32 6
  %100 = getelementptr inbounds [20 x i8], [20 x i8]* %99, i64 0, i64 0
  %101 = call i32 (i8*, ...) @__isoc99_scanf(i8* getelementptr inbounds ([3 x i8], [3 x i8]* @.str, i64 0, i64 0), i8* %100)
  %102 = load %struct.student*, %struct.student** %3, align 8
  %103 = getelementptr inbounds %struct.student, %struct.student* %102, i32 0, i32 7
  store %struct.student* null, %struct.student** %103, align 8
  br label %104

104:                                              ; preds = %83
  %105 = load %struct.student*, %struct.student** %3, align 8
  %106 = load %struct.student*, %struct.student** %4, align 8
  %107 = getelementptr inbounds %struct.student, %struct.student* %106, i32 0, i32 7
  store %struct.student* %105, %struct.student** %107, align 8
  %108 = load %struct.student*, %struct.student** %3, align 8
  store %struct.student* %108, %struct.student** %4, align 8
  br label %47

109:                                              ; preds = %79, %19
  %110 = load %struct.student*, %struct.student** %1, align 8
  ret %struct.student* %110
}

; Function Attrs: noinline nounwind uwtable
define dso_local void @destroy(%struct.student* %0) #0 {
  %2 = alloca %struct.student*, align 8
  %3 = alloca %struct.student*, align 8
  store %struct.student* %0, %struct.student** %2, align 8
  br label %4

4:                                                ; preds = %7, %1
  %5 = load %struct.student*, %struct.student** %2, align 8
  %6 = icmp ne %struct.student* %5, null
  br i1 %6, label %7, label %14

7:                                                ; preds = %4
  %8 = load %struct.student*, %struct.student** %2, align 8
  store %struct.student* %8, %struct.student** %3, align 8
  %9 = load %struct.student*, %struct.student** %2, align 8
  %10 = getelementptr inbounds %struct.student, %struct.student* %9, i32 0, i32 7
  %11 = load %struct.student*, %struct.student** %10, align 8
  store %struct.student* %11, %struct.student** %2, align 8
  %12 = load %struct.student*, %struct.student** %3, align 8
  %13 = bitcast %struct.student* %12 to i8*
  call void @free(i8* %13) #3
  br label %4

14:                                               ; preds = %4
  ret void
}

; Function Attrs: noinline nounwind uwtable
define dso_local void @main() #0 {
  %1 = alloca %struct.student*, align 8
  %2 = alloca %struct.student*, align 8
  %3 = alloca %struct.student*, align 8
  %4 = call %struct.student* @create()
  store %struct.student* %4, %struct.student** %1, align 8
  %5 = load %struct.student*, %struct.student** %1, align 8
  store %struct.student* %5, %struct.student** %3, align 8
  br label %6

6:                                                ; preds = %11, %0
  %7 = load %struct.student*, %struct.student** %3, align 8
  %8 = getelementptr inbounds %struct.student, %struct.student* %7, i32 0, i32 7
  %9 = load %struct.student*, %struct.student** %8, align 8
  %10 = icmp ne %struct.student* %9, null
  br i1 %10, label %11, label %15

11:                                               ; preds = %6
  %12 = load %struct.student*, %struct.student** %3, align 8
  %13 = getelementptr inbounds %struct.student, %struct.student* %12, i32 0, i32 7
  %14 = load %struct.student*, %struct.student** %13, align 8
  store %struct.student* %14, %struct.student** %3, align 8
  br label %6

15:                                               ; preds = %6
  %16 = load %struct.student*, %struct.student** %3, align 8
  store %struct.student* %16, %struct.student** %2, align 8
  br label %17

17:                                               ; preds = %42, %15
  %18 = load %struct.student*, %struct.student** %2, align 8
  %19 = icmp ne %struct.student* %18, null
  br i1 %19, label %20, label %46

20:                                               ; preds = %17
  %21 = load %struct.student*, %struct.student** %2, align 8
  %22 = getelementptr inbounds %struct.student, %struct.student* %21, i32 0, i32 1
  %23 = getelementptr inbounds [10 x i8], [10 x i8]* %22, i64 0, i64 0
  %24 = load %struct.student*, %struct.student** %2, align 8
  %25 = getelementptr inbounds %struct.student, %struct.student* %24, i32 0, i32 2
  %26 = getelementptr inbounds [20 x i8], [20 x i8]* %25, i64 0, i64 0
  %27 = load %struct.student*, %struct.student** %2, align 8
  %28 = getelementptr inbounds %struct.student, %struct.student* %27, i32 0, i32 3
  %29 = load i8, i8* %28, align 2
  %30 = sext i8 %29 to i32
  %31 = load %struct.student*, %struct.student** %2, align 8
  %32 = getelementptr inbounds %struct.student, %struct.student* %31, i32 0, i32 4
  %33 = load i32, i32* %32, align 8
  %34 = load %struct.student*, %struct.student** %2, align 8
  %35 = getelementptr inbounds %struct.student, %struct.student* %34, i32 0, i32 5
  %36 = load float, float* %35, align 4
  %37 = fpext float %36 to double
  %38 = load %struct.student*, %struct.student** %2, align 8
  %39 = getelementptr inbounds %struct.student, %struct.student* %38, i32 0, i32 6
  %40 = getelementptr inbounds [20 x i8], [20 x i8]* %39, i64 0, i64 0
  %41 = call i32 (i8*, ...) @printf(i8* getelementptr inbounds ([19 x i8], [19 x i8]* @.str.4, i64 0, i64 0), i8* %23, i8* %26, i32 %30, i32 %33, double %37, i8* %40)
  br label %42

42:                                               ; preds = %20
  %43 = load %struct.student*, %struct.student** %2, align 8
  %44 = getelementptr inbounds %struct.student, %struct.student* %43, i32 0, i32 0
  %45 = load %struct.student*, %struct.student** %44, align 8
  store %struct.student* %45, %struct.student** %2, align 8
  br label %17

46:                                               ; preds = %17
  %47 = load %struct.student*, %struct.student** %1, align 8
  call void @destroy(%struct.student* %47)
  ret void
}